target datalayout = "e-m:e-p270:32:32-p271:32:32-p272:64:64-i64:64-i128:128-f80:128-n8:16:32:64-S128"
target triple = "x86_64-pc-linux-gnu"

%struct.AVFilterContext = type { ptr, ptr, ptr, ptr, ptr, i32, ptr, ptr, i32, ptr, ptr, i32, i32, ptr, ptr, ptr, ptr, i32, ptr, i32, i32 }
%struct.AudioDeclickContext = type { ptr, double, double, double, double, double, i32, i32, i32, i32, i32, i32, i32, i32, ptr, ptr, ptr, ptr, ptr, ptr, i64, i32, i64, i64, i32, i32, ptr, ptr, ptr, ptr }
%struct.DeclickChannel = type { ptr, ptr, ptr, ptr, ptr, ptr, ptr, i32, ptr, i32, ptr, i32, ptr, ptr, ptr, i32 }

@.str.30 = private unnamed_addr constant [43 x i8] c"Detected %s in %ld of %ld samples (%g%%).\0A\00", align 1
@.str.31 = private unnamed_addr constant [6 x i8] c"clips\00", align 1
@.str.32 = private unnamed_addr constant [7 x i8] c"clicks\00", align 1

; Function Attrs: cold nounwind optsize uwtable
define internal void @uninit(ptr noundef %0) #0 {
  %2 = alloca ptr, align 8
  %3 = alloca ptr, align 8
  %4 = alloca i32, align 4
  %5 = alloca ptr, align 8
  store ptr %0, ptr %2, align 8, !tbaa !4
  call void @llvm.lifetime.start.p0(i64 8, ptr %3) #11
  %6 = load ptr, ptr %2, align 8, !tbaa !4
  %7 = getelementptr inbounds nuw %struct.AVFilterContext, ptr %6, i32 0, i32 9
  %8 = load ptr, ptr %7, align 8, !tbaa !9
  store ptr %8, ptr %3, align 8, !tbaa !22
  call void @llvm.lifetime.start.p0(i64 4, ptr %4) #11
  %9 = load ptr, ptr %3, align 8, !tbaa !22
  %10 = getelementptr inbounds nuw %struct.AudioDeclickContext, ptr %9, i32 0, i32 22
  %11 = load i64, ptr %10, align 8, !tbaa !35
  %12 = icmp ugt i64 %11, 0
  br i1 %12, label %13, label %36

13:                                               ; preds = %1
  %14 = load ptr, ptr %2, align 8, !tbaa !4
  %15 = load ptr, ptr %3, align 8, !tbaa !22
  %16 = getelementptr inbounds nuw %struct.AudioDeclickContext, ptr %15, i32 0, i32 8
  %17 = load i32, ptr %16, align 8, !tbaa !27
  %18 = icmp ne i32 %17, 0
  %19 = select i1 %18, ptr @.str.31, ptr @.str.32
  %20 = load ptr, ptr %3, align 8, !tbaa !22
  %21 = getelementptr inbounds nuw %struct.AudioDeclickContext, ptr %20, i32 0, i32 23
  %22 = load i64, ptr %21, align 8, !tbaa !36
  %23 = load ptr, ptr %3, align 8, !tbaa !22
  %24 = getelementptr inbounds nuw %struct.AudioDeclickContext, ptr %23, i32 0, i32 22
  %25 = load i64, ptr %24, align 8, !tbaa !35
  %26 = load ptr, ptr %3, align 8, !tbaa !22
  %27 = getelementptr inbounds nuw %struct.AudioDeclickContext, ptr %26, i32 0, i32 23
  %28 = load i64, ptr %27, align 8, !tbaa !36
  %29 = uitofp i64 %28 to double
  %30 = fmul nsz double 1.000000e+02, %29
  %31 = load ptr, ptr %3, align 8, !tbaa !22
  %32 = getelementptr inbounds nuw %struct.AudioDeclickContext, ptr %31, i32 0, i32 22
  %33 = load i64, ptr %32, align 8, !tbaa !35
  %34 = uitofp i64 %33 to double
  %35 = fdiv nsz double %30, %34
  call void (ptr, i32, ptr, ...) @av_log(ptr noundef %14, i32 noundef 32, ptr noundef @.str.30, ptr noundef %19, i64 noundef %22, i64 noundef %25, double noundef %35)
  br label %36

36:                                               ; preds = %13, %1
  %37 = load ptr, ptr %3, align 8, !tbaa !22
  %38 = getelementptr inbounds nuw %struct.AudioDeclickContext, ptr %37, i32 0, i32 27
  %39 = load ptr, ptr %38, align 8, !tbaa !37
  call void @av_audio_fifo_free(ptr noundef %39)
  %40 = load ptr, ptr %3, align 8, !tbaa !22
  %41 = getelementptr inbounds nuw %struct.AudioDeclickContext, ptr %40, i32 0, i32 26
  %42 = load ptr, ptr %41, align 8, !tbaa !38
  call void @av_audio_fifo_free(ptr noundef %42)
  %43 = load ptr, ptr %3, align 8, !tbaa !22
  %44 = getelementptr inbounds nuw %struct.AudioDeclickContext, ptr %43, i32 0, i32 28
  call void @av_freep(ptr noundef %44)
  %45 = load ptr, ptr %3, align 8, !tbaa !22
  %46 = getelementptr inbounds nuw %struct.AudioDeclickContext, ptr %45, i32 0, i32 14
  call void @av_frame_free(ptr noundef %46)
  %47 = load ptr, ptr %3, align 8, !tbaa !22
  %48 = getelementptr inbounds nuw %struct.AudioDeclickContext, ptr %47, i32 0, i32 15
  call void @av_frame_free(ptr noundef %48)
  %49 = load ptr, ptr %3, align 8, !tbaa !22
  %50 = getelementptr inbounds nuw %struct.AudioDeclickContext, ptr %49, i32 0, i32 16
  call void @av_frame_free(ptr noundef %50)
  %51 = load ptr, ptr %3, align 8, !tbaa !22
  %52 = getelementptr inbounds nuw %struct.AudioDeclickContext, ptr %51, i32 0, i32 17
  call void @av_frame_free(ptr noundef %52)
  %53 = load ptr, ptr %3, align 8, !tbaa !22
  %54 = getelementptr inbounds nuw %struct.AudioDeclickContext, ptr %53, i32 0, i32 18
  call void @av_frame_free(ptr noundef %54)
  %55 = load ptr, ptr %3, align 8, !tbaa !22
  %56 = getelementptr inbounds nuw %struct.AudioDeclickContext, ptr %55, i32 0, i32 19
  %57 = load ptr, ptr %56, align 8, !tbaa !39
  %58 = icmp ne ptr %57, null
  br i1 %58, label %59, label %109

59:                                               ; preds = %36
  store i32 0, ptr %4, align 4, !tbaa !40
  br label %60

60:                                               ; preds = %105, %59
  %61 = load i32, ptr %4, align 4, !tbaa !40
  %62 = load ptr, ptr %3, align 8, !tbaa !22
  %63 = getelementptr inbounds nuw %struct.AudioDeclickContext, ptr %62, i32 0, i32 21
  %64 = load i32, ptr %63, align 8, !tbaa !41
  %65 = icmp slt i32 %61, %64
  br i1 %65, label %66, label %108

66:                                               ; preds = %60
  call void @llvm.lifetime.start.p0(i64 8, ptr %5) #11
  %67 = load ptr, ptr %3, align 8, !tbaa !22
  %68 = getelementptr inbounds nuw %struct.AudioDeclickContext, ptr %67, i32 0, i32 19
  %69 = load ptr, ptr %68, align 8, !tbaa !39
  %70 = load i32, ptr %4, align 4, !tbaa !40
  %71 = sext i32 %70 to i64
  %72 = getelementptr inbounds %struct.DeclickChannel, ptr %69, i64 %71
  store ptr %72, ptr %5, align 8, !tbaa !42
  %73 = load ptr, ptr %5, align 8, !tbaa !42
  %74 = getelementptr inbounds nuw %struct.DeclickChannel, ptr %73, i32 0, i32 1
  call void @av_freep(ptr noundef %74)
  %75 = load ptr, ptr %5, align 8, !tbaa !42
  %76 = getelementptr inbounds nuw %struct.DeclickChannel, ptr %75, i32 0, i32 0
  call void @av_freep(ptr noundef %76)
  %77 = load ptr, ptr %5, align 8, !tbaa !42
  %78 = getelementptr inbounds nuw %struct.DeclickChannel, ptr %77, i32 0, i32 2
  call void @av_freep(ptr noundef %78)
  %79 = load ptr, ptr %5, align 8, !tbaa !42
  %80 = getelementptr inbounds nuw %struct.DeclickChannel, ptr %79, i32 0, i32 3
  call void @av_freep(ptr noundef %80)
  %81 = load ptr, ptr %5, align 8, !tbaa !42
  %82 = getelementptr inbounds nuw %struct.DeclickChannel, ptr %81, i32 0, i32 4
  call void @av_freep(ptr noundef %82)
  %83 = load ptr, ptr %5, align 8, !tbaa !42
  %84 = getelementptr inbounds nuw %struct.DeclickChannel, ptr %83, i32 0, i32 12
  call void @av_freep(ptr noundef %84)
  %85 = load ptr, ptr %5, align 8, !tbaa !42
  %86 = getelementptr inbounds nuw %struct.DeclickChannel, ptr %85, i32 0, i32 13
  call void @av_freep(ptr noundef %86)
  %87 = load ptr, ptr %5, align 8, !tbaa !42
  %88 = getelementptr inbounds nuw %struct.DeclickChannel, ptr %87, i32 0, i32 5
  call void @av_freep(ptr noundef %88)
  %89 = load ptr, ptr %5, align 8, !tbaa !42
  %90 = getelementptr inbounds nuw %struct.DeclickChannel, ptr %89, i32 0, i32 6
  call void @av_freep(ptr noundef %90)
  %91 = load ptr, ptr %5, align 8, !tbaa !42
  %92 = getelementptr inbounds nuw %struct.DeclickChannel, ptr %91, i32 0, i32 7
  store i32 0, ptr %92, align 8, !tbaa !43
  %93 = load ptr, ptr %5, align 8, !tbaa !42
  %94 = getelementptr inbounds nuw %struct.DeclickChannel, ptr %93, i32 0, i32 14
  call void @av_freep(ptr noundef %94)
  %95 = load ptr, ptr %5, align 8, !tbaa !42
  %96 = getelementptr inbounds nuw %struct.DeclickChannel, ptr %95, i32 0, i32 15
  store i32 0, ptr %96, align 8, !tbaa !46
  %97 = load ptr, ptr %5, align 8, !tbaa !42
  %98 = getelementptr inbounds nuw %struct.DeclickChannel, ptr %97, i32 0, i32 8
  call void @av_freep(ptr noundef %98)
  %99 = load ptr, ptr %5, align 8, !tbaa !42
  %100 = getelementptr inbounds nuw %struct.DeclickChannel, ptr %99, i32 0, i32 9
  store i32 0, ptr %100, align 8, !tbaa !47
  %101 = load ptr, ptr %5, align 8, !tbaa !42
  %102 = getelementptr inbounds nuw %struct.DeclickChannel, ptr %101, i32 0, i32 10
  call void @av_freep(ptr noundef %102)
  %103 = load ptr, ptr %5, align 8, !tbaa !42
  %104 = getelementptr inbounds nuw %struct.DeclickChannel, ptr %103, i32 0, i32 11
  store i32 0, ptr %104, align 8, !tbaa !48
  call void @llvm.lifetime.end.p0(i64 8, ptr %5) #11
  br label %105

105:                                              ; preds = %66
  %106 = load i32, ptr %4, align 4, !tbaa !40
  %107 = add nsw i32 %106, 1
  store i32 %107, ptr %4, align 4, !tbaa !40
  br label %60, !llvm.loop !49

108:                                              ; preds = %60
  br label %109

109:                                              ; preds = %108, %36
  %110 = load ptr, ptr %3, align 8, !tbaa !22
  %111 = getelementptr inbounds nuw %struct.AudioDeclickContext, ptr %110, i32 0, i32 19
  call void @av_freep(ptr noundef %111)
  %112 = load ptr, ptr %3, align 8, !tbaa !22
  %113 = getelementptr inbounds nuw %struct.AudioDeclickContext, ptr %112, i32 0, i32 21
  store i32 0, ptr %113, align 8, !tbaa !41
  call void @llvm.lifetime.end.p0(i64 4, ptr %4) #11
  call void @llvm.lifetime.end.p0(i64 8, ptr %3) #11
  ret void
}