; Function Attrs: cold nounwind optsize uwtable
define internal void @uninit(ptr noundef %0) #1 {
  %2 = getelementptr inbounds nuw i8, ptr %0, i64 72
  %3 = load ptr, ptr %2, align 8, !tbaa !4
  %4 = getelementptr inbounds nuw i8, ptr %3, i64 144
  %5 = load i64, ptr %4, align 8, !tbaa !31
  %.not = icmp eq i64 %5, 0
  br i1 %.not, label %16, label %6

6:                                                ; preds = %1
  %7 = getelementptr inbounds nuw i8, ptr %3, i64 56
  %8 = load i32, ptr %7, align 8, !tbaa !23
  %.not40 = icmp eq i32 %8, 0
  %9 = select i1 %.not40, ptr @.str.32, ptr @.str.31
  %10 = getelementptr inbounds nuw i8, ptr %3, i64 152
  %11 = load i64, ptr %10, align 8, !tbaa !32
  %12 = uitofp i64 %11 to double
  %13 = fmul nsz double %12, 1.000000e+02
  %14 = uitofp i64 %5 to double
  %15 = fdiv nsz double %13, %14
  tail call void (ptr, i32, ptr, ...) @av_log(ptr noundef nonnull %0, i32 noundef 32, ptr noundef nonnull @.str.30, ptr noundef nonnull %9, i64 noundef %11, i64 noundef %5, double noundef %15) #13
  br label %16

16:                                               ; preds = %6, %1
  %17 = getelementptr inbounds nuw i8, ptr %3, i64 176
  %18 = load ptr, ptr %17, align 8, !tbaa !33
  tail call void @av_audio_fifo_free(ptr noundef %18) #13
  %19 = getelementptr inbounds nuw i8, ptr %3, i64 168
  %20 = load ptr, ptr %19, align 8, !tbaa !34
  tail call void @av_audio_fifo_free(ptr noundef %20) #13
  %21 = getelementptr inbounds nuw i8, ptr %3, i64 184
  tail call void @av_freep(ptr noundef nonnull %21) #13
  %22 = getelementptr inbounds nuw i8, ptr %3, i64 80
  tail call void @av_frame_free(ptr noundef nonnull %22) #13
  %23 = getelementptr inbounds nuw i8, ptr %3, i64 88
  tail call void @av_frame_free(ptr noundef nonnull %23) #13
  %24 = getelementptr inbounds nuw i8, ptr %3, i64 96
  tail call void @av_frame_free(ptr noundef nonnull %24) #13
  %25 = getelementptr inbounds nuw i8, ptr %3, i64 104
  tail call void @av_frame_free(ptr noundef nonnull %25) #13
  %26 = getelementptr inbounds nuw i8, ptr %3, i64 112
  tail call void @av_frame_free(ptr noundef nonnull %26) #13
  %27 = getelementptr inbounds nuw i8, ptr %3, i64 120
  %28 = load ptr, ptr %27, align 8, !tbaa !35
  %.not41 = icmp eq ptr %28, null
  br i1 %.not41, label %.loopexit, label %.preheader

.preheader:                                       ; preds = %16
  %29 = getelementptr inbounds nuw i8, ptr %3, i64 136
  %30 = load i32, ptr %29, align 8, !tbaa !36
  %31 = icmp sgt i32 %30, 0
  br i1 %31, label %.lr.ph, label %.loopexit

.lr.ph:                                           ; preds = %.preheader, %.lr.ph
  %indvars.iv = phi i64 [ %indvars.iv.next, %.lr.ph ], [ 0, %.preheader ]
  %32 = load ptr, ptr %27, align 8, !tbaa !35
  %33 = getelementptr inbounds nuw %struct.DeclickChannel, ptr %32, i64 %indvars.iv
  %34 = getelementptr inbounds nuw i8, ptr %33, i64 8
  tail call void @av_freep(ptr noundef nonnull %34) #13
  tail call void @av_freep(ptr noundef %33) #13
  %35 = getelementptr inbounds nuw i8, ptr %33, i64 16
  tail call void @av_freep(ptr noundef nonnull %35) #13
  %36 = getelementptr inbounds nuw i8, ptr %33, i64 24
  tail call void @av_freep(ptr noundef nonnull %36) #13
  %37 = getelementptr inbounds nuw i8, ptr %33, i64 32
  tail call void @av_freep(ptr noundef nonnull %37) #13
  %38 = getelementptr inbounds nuw i8, ptr %33, i64 96
  tail call void @av_freep(ptr noundef nonnull %38) #13
  %39 = getelementptr inbounds nuw i8, ptr %33, i64 104
  tail call void @av_freep(ptr noundef nonnull %39) #13
  %40 = getelementptr inbounds nuw i8, ptr %33, i64 40
  tail call void @av_freep(ptr noundef nonnull %40) #13
  %41 = getelementptr inbounds nuw i8, ptr %33, i64 48
  tail call void @av_freep(ptr noundef nonnull %41) #13
  %42 = getelementptr inbounds nuw i8, ptr %33, i64 56
  store i32 0, ptr %42, align 8, !tbaa !37
  %43 = getelementptr inbounds nuw i8, ptr %33, i64 112
  tail call void @av_freep(ptr noundef nonnull %43) #13
  %44 = getelementptr inbounds nuw i8, ptr %33, i64 120
  store i32 0, ptr %44, align 8, !tbaa !40
  %45 = getelementptr inbounds nuw i8, ptr %33, i64 64
  tail call void @av_freep(ptr noundef nonnull %45) #13
  %46 = getelementptr inbounds nuw i8, ptr %33, i64 72
  store i32 0, ptr %46, align 8, !tbaa !41
  %47 = getelementptr inbounds nuw i8, ptr %33, i64 80
  tail call void @av_freep(ptr noundef nonnull %47) #13
  %48 = getelementptr inbounds nuw i8, ptr %33, i64 88
  store i32 0, ptr %48, align 8, !tbaa !42
  %indvars.iv.next = add nuw nsw i64 %indvars.iv, 1
  %49 = load i32, ptr %29, align 8, !tbaa !36
  %50 = sext i32 %49 to i64
  %51 = icmp slt i64 %indvars.iv.next, %50
  br i1 %51, label %.lr.ph, label %.loopexit, !llvm.loop !43

.loopexit:                                        ; preds = %.lr.ph, %.preheader, %16
  tail call void @av_freep(ptr noundef nonnull %27) #13
  %52 = getelementptr inbounds nuw i8, ptr %3, i64 136
  store i32 0, ptr %52, align 8, !tbaa !36
  ret void
}